; Function Attrs: mustprogress uwtable
define internal void @_ZNK5faiss12_GLOBAL__N_114IVFFlatScannerILNS_10MetricTypeE1ENS_4CMaxIflEELb0EE16scan_codes_rangeEmPKhPKlfRNS_16RangeQueryResultE(ptr noundef nonnull readonly align 8 captures(none) dereferenceable(56) %0, i64 noundef %1, ptr noundef %2, ptr noundef readonly captures(none) %3, float noundef %4, ptr noundef nonnull align 8 dereferenceable(24) %5) unnamed_addr #3 align 2 {
  %.not = icmp eq i64 %1, 0
  br i1 %.not, label %._crit_edge, label %.lr.ph

.lr.ph:                                           ; preds = %6
  %7 = getelementptr inbounds nuw i8, ptr %0, i64 40
  %8 = getelementptr inbounds nuw i8, ptr %0, i64 48
  %9 = getelementptr inbounds nuw i8, ptr %0, i64 17
  %10 = getelementptr inbounds nuw i8, ptr %0, i64 8
  br label %11

._crit_edge:                                      ; preds = %30, %6
  ret void

11:                                               ; preds = %.lr.ph, %30
  %.015 = phi i64 [ 0, %.lr.ph ], [ %31, %30 ]
  %12 = load i64, ptr %7, align 8, !tbaa !143
  %13 = mul i64 %12, %.015
  %14 = getelementptr inbounds nuw float, ptr %2, i64 %13
  %15 = load ptr, ptr %8, align 8, !tbaa !141
  %16 = tail call noundef float @_ZN5faiss10fvec_L2sqrEPKfS1_m(ptr noundef %15, ptr noundef %14, i64 noundef %12)
  %17 = fcmp ogt float %4, %16
  br i1 %17, label %18, label %30

18:                                               ; preds = %11
  %19 = load i8, ptr %9, align 1, !tbaa !59, !range !42, !noundef !43
  %20 = trunc nuw i8 %19 to i1
  br i1 %20, label %21, label %25

21:                                               ; preds = %18
  %22 = load i64, ptr %10, align 8, !tbaa !56
  %23 = shl i64 %22, 32
  %24 = or i64 %23, %.015
  br label %28

25:                                               ; preds = %18
  %26 = getelementptr inbounds nuw i64, ptr %3, i64 %.015
  %27 = load i64, ptr %26, align 8, !tbaa !36
  br label %28

28:                                               ; preds = %25, %21
  %29 = phi i64 [ %24, %21 ], [ %27, %25 ]
  tail call void @_ZN5faiss16RangeQueryResult3addEfl(ptr noundef nonnull align 8 dereferenceable(24) %5, float noundef %16, i64 noundef %29)
  br label %30

30:                                               ; preds = %28, %11
  %31 = add nuw i64 %.015, 1
  %exitcond.not = icmp eq i64 %31, %1
  br i1 %exitcond.not, label %._crit_edge, label %11, !llvm.loop !145
}